; Function Attrs: inlinehint nounwind uwtable
define internal fastcc noundef ptr @pmix_obj_new_tma(ptr noundef %0) unnamed_addr #3 {
  %2 = getelementptr inbounds nuw i8, ptr %0, i64 56
  %3 = load i64, ptr %2, align 8, !tbaa !37
  %4 = tail call noalias noundef ptr @malloc(i64 noundef %3) #15
  %5 = load i32, ptr @pmix_class_init_epoch, align 4, !tbaa !28
  %6 = getelementptr inbounds nuw i8, ptr %0, i64 32
  %7 = load i32, ptr %6, align 8, !tbaa !29
  %.not = icmp eq i32 %5, %7
  br i1 %.not, label %9, label %8

8:                                                ; preds = %1
  tail call void @pmix_class_initialize(ptr noundef nonnull %0) #14
  br label %9

9:                                                ; preds = %8, %1
  %.not22 = icmp eq ptr %4, null
  br i1 %.not22, label %pmix_obj_run_constructors.exit, label %10

10:                                               ; preds = %9
  %11 = tail call i32 @pthread_mutex_init(ptr noundef nonnull %4, ptr noundef null) #14
  %12 = getelementptr inbounds nuw i8, ptr %4, i64 40
  store ptr %0, ptr %12, align 8, !tbaa !31
  %13 = getelementptr inbounds nuw i8, ptr %4, i64 48
  store i32 1, ptr %13, align 8, !tbaa !32
  %14 = getelementptr inbounds nuw i8, ptr %4, i64 56
  %15 = getelementptr inbounds nuw i8, ptr %4, i64 96
  %16 = getelementptr inbounds nuw i8, ptr %0, i64 40
  tail call void @llvm.memset.p0.i64(ptr noundef nonnull align 8 dereferenceable(32) %14, i8 0, i64 32, i1 false)
  tail call void @llvm.memset.p0.i64(ptr noundef nonnull align 8 dereferenceable(24) %15, i8 0, i64 24, i1 false)
  %17 = load ptr, ptr %16, align 8, !tbaa !33
  %18 = load ptr, ptr %17, align 8, !tbaa !34
  %.not6.i = icmp eq ptr %18, null
  br i1 %.not6.i, label %pmix_obj_run_constructors.exit, label %.lr.ph.i

.lr.ph.i:                                         ; preds = %10, %.lr.ph.i
  %19 = phi ptr [ %21, %.lr.ph.i ], [ %18, %10 ]
  %.07.i = phi ptr [ %20, %.lr.ph.i ], [ %17, %10 ]
  tail call void %19(ptr noundef nonnull %4) #14
  %20 = getelementptr inbounds nuw i8, ptr %.07.i, i64 8
  %21 = load ptr, ptr %20, align 8, !tbaa !34
  %.not.i = icmp eq ptr %21, null
  br i1 %.not.i, label %pmix_obj_run_constructors.exit, label %.lr.ph.i, !llvm.loop !35

pmix_obj_run_constructors.exit:                   ; preds = %.lr.ph.i, %10, %9
  ret ptr %4
}